ccopy_reg
_reconstructor
p0
(cpandas.core.frame
DataFrame
p1
c__builtin__
object
p2
Ntp3
Rp4
g0
(cpandas.core.internals
BlockManager
p5
g2
Ntp6
Rp7
((lp8
cpandas.core.index
_new_Index
p9
(cpandas.core.index
Index
p10
(dp11
S'data'
p12
cnumpy.core.multiarray
_reconstruct
p13
(cnumpy
ndarray
p14
(I0
tp15
S'b'
p16
tp17
Rp18
(I1
(I5
tp19
cnumpy
dtype
p20
(S'O8'
p21
I0
I1
tp22
Rp23
(I3
S'|'
p24
NNNI-1
I-1
I63
tp25
bI00
(lp26
S'Density'
p27
aS'EnergyType'
p28
aS'Max.'
p29
aS'Min.'
p30
aS'RMS'
p31
atp32
bsS'name'
p33
Nstp34
Rp35
ag9
(cpandas.core.index
Int64Index
p36
(dp37
g12
g13
(g14
(I0
tp38
g16
tp39
Rp40
(I1
(I3
tp41
g20
(S'i8'
p42
I0
I1
tp43
Rp44
(I3
S'<'
p45
NNNI-1
I-1
I0
tp46
bI00
S'\x00\x00\x00\x00\x00\x00\x00\x00\x01\x00\x00\x00\x00\x00\x00\x00\x02\x00\x00\x00\x00\x00\x00\x00'
p47
tp48
bsg33
Nstp49
Rp50
a(lp51
g13
(g14
(I0
tp52
g16
tp53
Rp54
(I1
(I1
I3
tp55
g23
I00
(lp56
S'2.5'
p57
ag57
ag57
atp58
bag13
(g14
(I0
tp59
g16
tp60
Rp61
(I1
(I1
I3
tp62
g20
(S'f8'
p63
I0
I1
tp64
Rp65
(I3
S'<'
p66
NNNI-1
I-1
I0
tp67
bI00
S'\x00\x00\x00\x00\x00\x00\x14@\x00\x00\x00\x00\x00\x00\x14@\x00\x00\x00\x00\x00\x00\x14@'
p68
tp69
bag13
(g14
(I0
tp70
g16
tp71
Rp72
(I1
(I3
I3
tp73
g23
I00
(lp74
S'13.37'
p75
aS'12.18'
p76
aS'-4.04'
p77
aS'-25.47'
p78
aS'-24.51'
p79
aS'-13.78'
p80
aS'9.58'
p81
aS'11.15'
p82
aS'8.36'
p83
atp84
ba(lp85
g9
(g10
(dp86
g12
g13
(g14
(I0
tp87
g16
tp88
Rp89
(I1
(I1
tp90
g23
I00
(lp91
g27
atp92
bsg33
Nstp93
Rp94
ag9
(g10
(dp95
g12
g13
(g14
(I0
tp96
g16
tp97
Rp98
(I1
(I1
tp99
g23
I00
(lp100
g28
atp101
bsg33
Nstp102
Rp103
ag9
(g10
(dp104
g12
g13
(g14
(I0
tp105
g16
tp106
Rp107
(I1
(I3
tp108
g23
I00
(lp109
g29
ag30
ag31
atp110
bsg33
Nstp111
Rp112
a(dp113
S'0.14.1'
p114
(dp115
S'axes'
p116
g8
sS'blocks'
p117
(lp118
(dp119
S'mgr_locs'
p120
c__builtin__
slice
p121
(I0
I1
I1
tp122
Rp123
sS'values'
p124
g54
sa(dp125
g120
g121
(I1
I2
I1
tp126
Rp127
sg124
g61
sa(dp128
g120
g121
(I2
I5
I1
tp129
Rp130
sg124
g72
sasstp131
bb.