ccopy_reg
_reconstructor
p0
(cpandas.core.frame
DataFrame
p1
c__builtin__
object
p2
Ntp3
Rp4
(dp5
S'_metadata'
p6
(lp7
sS'_typ'
p8
S'dataframe'
p9
sS'_data'
p10
g0
(cpandas.core.internals
BlockManager
p11
g2
Ntp12
Rp13
((lp14
cpandas.core.indexes.base
_new_Index
p15
(cpandas.core.indexes.base
Index
p16
(dp17
S'data'
p18
cnumpy.core.multiarray
_reconstruct
p19
(cnumpy
ndarray
p20
(I0
tp21
S'b'
p22
tp23
Rp24
(I1
(L5L
tp25
cnumpy
dtype
p26
(S'O8'
p27
I0
I1
tp28
Rp29
(I3
S'|'
p30
NNNI-1
I-1
I63
tp31
bI00
(lp32
S'Density'
p33
aS'EnergyType'
p34
aS'Max.'
p35
aS'Min.'
p36
aS'RMS'
p37
atp38
bsS'name'
p39
Nstp40
Rp41
ag15
(cpandas.core.indexes.range
RangeIndex
p42
(dp43
S'start'
p44
I0
sS'step'
p45
I1
sS'stop'
p46
I3
sg39
Nstp47
Rp48
a(lp49
g19
(g20
(I0
tp50
g22
tp51
Rp52
(I1
(L1L
L3L
tp53
g29
I00
(lp54
S'0'
p55
ag55
ag55
atp56
bag19
(g20
(I0
tp57
g22
tp58
Rp59
(I1
(L1L
L3L
tp60
g29
I00
(lp61
L5L
aL5L
aL5L
atp62
bag19
(g20
(I0
tp63
g22
tp64
Rp65
(I1
(L3L
L3L
tp66
g29
I00
(lp67
S'10.96'
p68
aS'4.89'
p69
aS'-1.24'
p70
aS'-35.86'
p71
aS'-13.35'
p72
aS'-16.85'
p73
aS'14.81'
p74
aS'10.18'
p75
aS'11.03'
p76
atp77
ba(lp78
g15
(g16
(dp79
g18
g19
(g20
(I0
tp80
g22
tp81
Rp82
(I1
(L1L
tp83
g29
I00
(lp84
g33
atp85
bsg39
Nstp86
Rp87
ag15
(g16
(dp88
g18
g19
(g20
(I0
tp89
g22
tp90
Rp91
(I1
(L1L
tp92
g29
I00
(lp93
g34
atp94
bsg39
Nstp95
Rp96
ag15
(g16
(dp97
g18
g19
(g20
(I0
tp98
g22
tp99
Rp100
(I1
(L3L
tp101
g29
I00
(lp102
g35
ag36
ag37
atp103
bsg39
Nstp104
Rp105
a(dp106
S'0.14.1'
p107
(dp108
S'axes'
p109
g14
sS'blocks'
p110
(lp111
(dp112
S'mgr_locs'
p113
c__builtin__
slice
p114
(I0
I1
I1
tp115
Rp116
sS'values'
p117
g52
sa(dp118
g113
g114
(I1
I2
I1
tp119
Rp120
sg117
g59
sa(dp121
g113
g114
(I2
I5
I1
tp122
Rp123
sg117
g65
sasstp124
bsb.