ccopy_reg
_reconstructor
p0
(cpandas.core.frame
DataFrame
p1
c__builtin__
object
p2
Ntp3
Rp4
(dp5
S'_metadata'
p6
(lp7
sS'_typ'
p8
S'dataframe'
p9
sS'_data'
p10
g0
(cpandas.core.internals
BlockManager
p11
g2
Ntp12
Rp13
((lp14
cpandas.core.indexes.base
_new_Index
p15
(cpandas.core.indexes.base
Index
p16
(dp17
S'data'
p18
cnumpy.core.multiarray
_reconstruct
p19
(cnumpy
ndarray
p20
(I0
tp21
S'b'
p22
tp23
Rp24
(I1
(L5L
tp25
cnumpy
dtype
p26
(S'O8'
p27
I0
I1
tp28
Rp29
(I3
S'|'
p30
NNNI-1
I-1
I63
tp31
bI00
(lp32
S'Density'
p33
aS'EnergyType'
p34
aS'Max.'
p35
aS'Min.'
p36
aS'RMS'
p37
atp38
bsS'name'
p39
Nstp40
Rp41
ag15
(cpandas.core.indexes.range
RangeIndex
p42
(dp43
S'start'
p44
I0
sS'step'
p45
I1
sS'stop'
p46
I5
sg39
Nstp47
Rp48
a(lp49
g19
(g20
(I0
tp50
g22
tp51
Rp52
(I1
(L1L
L5L
tp53
g29
I00
(lp54
S'2.0'
p55
ag55
ag55
ag55
ag55
atp56
bag19
(g20
(I0
tp57
g22
tp58
Rp59
(I1
(L1L
L5L
tp60
g29
I00
(lp61
L5L
aL5L
aL5L
aL5L
aL5L
atp62
bag19
(g20
(I0
tp63
g22
tp64
Rp65
(I1
(L3L
L5L
tp66
g29
I00
(lp67
S'138.99'
p68
aS'23.69'
p69
aS'34.97'
p70
aS'8.89'
p71
aS'10.44'
p72
aS'-92.44'
p73
aS'-49.79'
p74
aS'-18.18'
p75
aS'-30.17'
p76
aS'-14.53'
p77
aS'84.19'
p78
aS'26.64'
p79
aS'15.72'
p80
aS'14.59'
p81
aS'7.80'
p82
atp83
ba(lp84
g15
(g16
(dp85
g18
g19
(g20
(I0
tp86
g22
tp87
Rp88
(I1
(L1L
tp89
g29
I00
(lp90
g33
atp91
bsg39
Nstp92
Rp93
ag15
(g16
(dp94
g18
g19
(g20
(I0
tp95
g22
tp96
Rp97
(I1
(L1L
tp98
g29
I00
(lp99
g34
atp100
bsg39
Nstp101
Rp102
ag15
(g16
(dp103
g18
g19
(g20
(I0
tp104
g22
tp105
Rp106
(I1
(L3L
tp107
g29
I00
(lp108
g35
ag36
ag37
atp109
bsg39
Nstp110
Rp111
a(dp112
S'0.14.1'
p113
(dp114
S'axes'
p115
g14
sS'blocks'
p116
(lp117
(dp118
S'mgr_locs'
p119
c__builtin__
slice
p120
(I0
I1
I1
tp121
Rp122
sS'values'
p123
g52
sa(dp124
g119
g120
(I1
I2
I1
tp125
Rp126
sg123
g59
sa(dp127
g119
g120
(I2
I5
I1
tp128
Rp129
sg123
g65
sasstp130
bsb.