ccopy_reg
_reconstructor
p0
(cpandas.core.frame
DataFrame
p1
c__builtin__
object
p2
Ntp3
Rp4
g0
(cpandas.core.internals
BlockManager
p5
g2
Ntp6
Rp7
((lp8
cpandas.core.index
_new_Index
p9
(cpandas.core.index
Index
p10
(dp11
S'data'
p12
cnumpy.core.multiarray
_reconstruct
p13
(cnumpy
ndarray
p14
(I0
tp15
S'b'
p16
tp17
Rp18
(I1
(I5
tp19
cnumpy
dtype
p20
(S'O8'
p21
I0
I1
tp22
Rp23
(I3
S'|'
p24
NNNI-1
I-1
I63
tp25
bI00
(lp26
S'Density'
p27
aS'EnergyType'
p28
aS'Max.'
p29
aS'Min.'
p30
aS'RMS'
p31
atp32
bsS'name'
p33
Nstp34
Rp35
ag9
(cpandas.core.index
Int64Index
p36
(dp37
g12
g13
(g14
(I0
tp38
g16
tp39
Rp40
(I1
(I5
tp41
g20
(S'i8'
p42
I0
I1
tp43
Rp44
(I3
S'<'
p45
NNNI-1
I-1
I0
tp46
bI00
S'\x00\x00\x00\x00\x00\x00\x00\x00\x01\x00\x00\x00\x00\x00\x00\x00\x02\x00\x00\x00\x00\x00\x00\x00\x03\x00\x00\x00\x00\x00\x00\x00\x04\x00\x00\x00\x00\x00\x00\x00'
p47
tp48
bsg33
Nstp49
Rp50
a(lp51
g13
(g14
(I0
tp52
g16
tp53
Rp54
(I1
(I1
I5
tp55
g23
I00
(lp56
S'2.5'
p57
ag57
ag57
ag57
ag57
atp58
bag13
(g14
(I0
tp59
g16
tp60
Rp61
(I1
(I1
I5
tp62
g20
(S'f8'
p63
I0
I1
tp64
Rp65
(I3
S'<'
p66
NNNI-1
I-1
I0
tp67
bI00
S'\x00\x00\x00\x00\x00\x00\x14@\x00\x00\x00\x00\x00\x00\x14@\x00\x00\x00\x00\x00\x00\x14@\x00\x00\x00\x00\x00\x00\x14@\x00\x00\x00\x00\x00\x00\x14@'
p68
tp69
bag13
(g14
(I0
tp70
g16
tp71
Rp72
(I1
(I3
I5
tp73
g23
I00
(lp74
S'152.19'
p75
aS'47.68'
p76
aS'72.23'
p77
aS'15.06'
p78
aS'18.04'
p79
aS'-96.85'
p80
aS'-61.02'
p81
aS'-23.70'
p82
aS'-39.19'
p83
aS'-15.52'
p84
aS'90.46'
p85
aS'36.42'
p86
aS'29.92'
p87
aS'18.61'
p88
aS'9.69'
p89
atp90
ba(lp91
g9
(g10
(dp92
g12
g13
(g14
(I0
tp93
g16
tp94
Rp95
(I1
(I1
tp96
g23
I00
(lp97
g27
atp98
bsg33
Nstp99
Rp100
ag9
(g10
(dp101
g12
g13
(g14
(I0
tp102
g16
tp103
Rp104
(I1
(I1
tp105
g23
I00
(lp106
g28
atp107
bsg33
Nstp108
Rp109
ag9
(g10
(dp110
g12
g13
(g14
(I0
tp111
g16
tp112
Rp113
(I1
(I3
tp114
g23
I00
(lp115
g29
ag30
ag31
atp116
bsg33
Nstp117
Rp118
a(dp119
S'0.14.1'
p120
(dp121
S'axes'
p122
g8
sS'blocks'
p123
(lp124
(dp125
S'mgr_locs'
p126
c__builtin__
slice
p127
(I0
I1
I1
tp128
Rp129
sS'values'
p130
g54
sa(dp131
g126
g127
(I1
I2
I1
tp132
Rp133
sg130
g61
sa(dp134
g126
g127
(I2
I5
I1
tp135
Rp136
sg130
g72
sasstp137
bb.