ccopy_reg
_reconstructor
p0
(cpandas.core.frame
DataFrame
p1
c__builtin__
object
p2
Ntp3
Rp4
(dp5
S'_metadata'
p6
(lp7
sS'_typ'
p8
S'dataframe'
p9
sS'_data'
p10
g0
(cpandas.core.internals
BlockManager
p11
g2
Ntp12
Rp13
((lp14
cpandas.core.indexes.base
_new_Index
p15
(cpandas.core.indexes.base
Index
p16
(dp17
S'data'
p18
cnumpy.core.multiarray
_reconstruct
p19
(cnumpy
ndarray
p20
(I0
tp21
S'b'
p22
tp23
Rp24
(I1
(L5L
tp25
cnumpy
dtype
p26
(S'O8'
p27
I0
I1
tp28
Rp29
(I3
S'|'
p30
NNNI-1
I-1
I63
tp31
bI00
(lp32
S'Density'
p33
aS'EnergyType'
p34
aS'Max.'
p35
aS'Min.'
p36
aS'RMS'
p37
atp38
bsS'name'
p39
Nstp40
Rp41
ag15
(cpandas.core.indexes.range
RangeIndex
p42
(dp43
S'start'
p44
I0
sS'step'
p45
I1
sS'stop'
p46
I4
sg39
Nstp47
Rp48
a(lp49
g19
(g20
(I0
tp50
g22
tp51
Rp52
(I1
(L1L
L4L
tp53
g29
I00
(lp54
S'1.5'
p55
ag55
ag55
ag55
atp56
bag19
(g20
(I0
tp57
g22
tp58
Rp59
(I1
(L1L
L4L
tp60
g29
I00
(lp61
L1L
aL1L
aL1L
aL1L
atp62
bag19
(g20
(I0
tp63
g22
tp64
Rp65
(I1
(L3L
L4L
tp66
g29
I00
(lp67
S'5.18'
p68
aS'-5.10'
p69
aS'11.35'
p70
aS'438.60'
p71
aS'-25.80'
p72
aS'-14.89'
p73
aS'-22.80'
p74
aS'-66.83'
p75
aS'9.98'
p76
aS'10.16'
p77
aS'9.16'
p78
aS'84.57'
p79
atp80
ba(lp81
g15
(g16
(dp82
g18
g19
(g20
(I0
tp83
g22
tp84
Rp85
(I1
(L1L
tp86
g29
I00
(lp87
g33
atp88
bsg39
Nstp89
Rp90
ag15
(g16
(dp91
g18
g19
(g20
(I0
tp92
g22
tp93
Rp94
(I1
(L1L
tp95
g29
I00
(lp96
g34
atp97
bsg39
Nstp98
Rp99
ag15
(g16
(dp100
g18
g19
(g20
(I0
tp101
g22
tp102
Rp103
(I1
(L3L
tp104
g29
I00
(lp105
g35
ag36
ag37
atp106
bsg39
Nstp107
Rp108
a(dp109
S'0.14.1'
p110
(dp111
S'axes'
p112
g14
sS'blocks'
p113
(lp114
(dp115
S'mgr_locs'
p116
c__builtin__
slice
p117
(I0
I1
I1
tp118
Rp119
sS'values'
p120
g52
sa(dp121
g116
g117
(I1
I2
I1
tp122
Rp123
sg120
g59
sa(dp124
g116
g117
(I2
I5
I1
tp125
Rp126
sg120
g65
sasstp127
bsb.